; ModuleID = '10/2351.c'
source_filename = "10/2351.c"
target datalayout = "e-m:e-p270:32:32-p271:32:32-p272:64:64-i64:64-f80:128-n8:16:32:64-S128"
target triple = "x86_64-pc-linux-gnu"

@.str = private unnamed_addr constant [3 x i8] c"%d\00", align 1
@.str.1 = private unnamed_addr constant [4 x i8] c"%d\0A\00", align 1

; Function Attrs: noinline nounwind uwtable
define dso_local void @main() #0 {
  %1 = alloca i32, align 4
  %2 = alloca [27 x i32], align 16
  %3 = alloca [27 x [27 x i32]], align 16
  %4 = alloca i32, align 4
  %5 = alloca i32, align 4
  %6 = alloca i32, align 4
  %7 = alloca i32, align 4
  %8 = bitcast [27 x i32]* %2 to i8*
  call void @llvm.memset.p0i8.i64(i8* align 16 %8, i8 0, i64 108, i1 false)
  %9 = bitcast i8* %8 to <{ i32, [26 x i32] }>*
  %10 = getelementptr inbounds <{ i32, [26 x i32] }>, <{ i32, [26 x i32] }>* %9, i32 0, i32 0
  store i32 100000000, i32* %10, align 16
  %11 = bitcast [27 x [27 x i32]]* %3 to i8*
  call void @llvm.memset.p0i8.i64(i8* align 16 %11, i8 0, i64 2916, i1 false)
  %12 = call i32 (i8*, ...) @__isoc99_scanf(i8* getelementptr inbounds ([3 x i8], [3 x i8]* @.str, i64 0, i64 0), i32* %1)
  store i32 1, i32* %4, align 4
  br label %13

13:                                               ; preds = %22, %0
  %14 = load i32, i32* %4, align 4
  %15 = load i32, i32* %1, align 4
  %16 = icmp sle i32 %14, %15
  br i1 %16, label %17, label %25

17:                                               ; preds = %13
  %18 = load i32, i32* %4, align 4
  %19 = sext i32 %18 to i64
  %20 = getelementptr inbounds [27 x i32], [27 x i32]* %2, i64 0, i64 %19
  %21 = call i32 (i8*, ...) @__isoc99_scanf(i8* getelementptr inbounds ([3 x i8], [3 x i8]* @.str, i64 0, i64 0), i32* %20)
  br label %22

22:                                               ; preds = %17
  %23 = load i32, i32* %4, align 4
  %24 = add nsw i32 %23, 1
  store i32 %24, i32* %4, align 4
  br label %13

25:                                               ; preds = %13
  %26 = load i32, i32* %1, align 4
  store i32 %26, i32* %4, align 4
  br label %27

27:                                               ; preds = %134, %25
  %28 = load i32, i32* %4, align 4
  %29 = icmp sge i32 %28, 0
  br i1 %29, label %30, label %137

30:                                               ; preds = %27
  %31 = load i32, i32* %1, align 4
  store i32 %31, i32* %5, align 4
  br label %32

32:                                               ; preds = %130, %30
  %33 = load i32, i32* %5, align 4
  %34 = load i32, i32* %4, align 4
  %35 = icmp sgt i32 %33, %34
  br i1 %35, label %36, label %133

36:                                               ; preds = %32
  %37 = load i32, i32* %4, align 4
  %38 = sext i32 %37 to i64
  %39 = getelementptr inbounds [27 x i32], [27 x i32]* %2, i64 0, i64 %38
  %40 = load i32, i32* %39, align 4
  %41 = load i32, i32* %5, align 4
  %42 = sext i32 %41 to i64
  %43 = getelementptr inbounds [27 x i32], [27 x i32]* %2, i64 0, i64 %42
  %44 = load i32, i32* %43, align 4
  %45 = icmp sge i32 %40, %44
  br i1 %45, label %46, label %129

46:                                               ; preds = %36
  store i32 0, i32* %7, align 4
  %47 = load i32, i32* %5, align 4
  store i32 %47, i32* %6, align 4
  br label %48

48:                                               ; preds = %74, %46
  %49 = load i32, i32* %6, align 4
  %50 = load i32, i32* %1, align 4
  %51 = icmp sle i32 %49, %50
  br i1 %51, label %52, label %77

52:                                               ; preds = %48
  %53 = load i32, i32* %7, align 4
  %54 = load i32, i32* %4, align 4
  %55 = sext i32 %54 to i64
  %56 = getelementptr inbounds [27 x [27 x i32]], [27 x [27 x i32]]* %3, i64 0, i64 %55
  %57 = load i32, i32* %6, align 4
  %58 = sext i32 %57 to i64
  %59 = getelementptr inbounds [27 x i32], [27 x i32]* %56, i64 0, i64 %58
  %60 = load i32, i32* %59, align 4
  %61 = icmp sgt i32 %53, %60
  br i1 %61, label %62, label %64

62:                                               ; preds = %52
  %63 = load i32, i32* %7, align 4
  br label %72

64:                                               ; preds = %52
  %65 = load i32, i32* %4, align 4
  %66 = sext i32 %65 to i64
  %67 = getelementptr inbounds [27 x [27 x i32]], [27 x [27 x i32]]* %3, i64 0, i64 %66
  %68 = load i32, i32* %6, align 4
  %69 = sext i32 %68 to i64
  %70 = getelementptr inbounds [27 x i32], [27 x i32]* %67, i64 0, i64 %69
  %71 = load i32, i32* %70, align 4
  br label %72

72:                                               ; preds = %64, %62
  %73 = phi i32 [ %63, %62 ], [ %71, %64 ]
  store i32 %73, i32* %7, align 4
  br label %74

74:                                               ; preds = %72
  %75 = load i32, i32* %6, align 4
  %76 = add nsw i32 %75, 1
  store i32 %76, i32* %6, align 4
  br label %48

77:                                               ; preds = %48
  %78 = load i32, i32* %5, align 4
  store i32 %78, i32* %6, align 4
  br label %79

79:                                               ; preds = %118, %77
  %80 = load i32, i32* %6, align 4
  %81 = load i32, i32* %1, align 4
  %82 = icmp sle i32 %80, %81
  br i1 %82, label %83, label %121

83:                                               ; preds = %79
  %84 = load i32, i32* %5, align 4
  %85 = sext i32 %84 to i64
  %86 = getelementptr inbounds [27 x i32], [27 x i32]* %2, i64 0, i64 %85
  %87 = load i32, i32* %86, align 4
  %88 = load i32, i32* %6, align 4
  %89 = sext i32 %88 to i64
  %90 = getelementptr inbounds [27 x i32], [27 x i32]* %2, i64 0, i64 %89
  %91 = load i32, i32* %90, align 4
  %92 = icmp sge i32 %87, %91
  br i1 %92, label %93, label %117

93:                                               ; preds = %83
  %94 = load i32, i32* %7, align 4
  %95 = load i32, i32* %5, align 4
  %96 = sext i32 %95 to i64
  %97 = getelementptr inbounds [27 x [27 x i32]], [27 x [27 x i32]]* %3, i64 0, i64 %96
  %98 = load i32, i32* %6, align 4
  %99 = sext i32 %98 to i64
  %100 = getelementptr inbounds [27 x i32], [27 x i32]* %97, i64 0, i64 %99
  %101 = load i32, i32* %100, align 4
  %102 = add nsw i32 %101, 1
  %103 = icmp sgt i32 %94, %102
  br i1 %103, label %104, label %106

104:                                              ; preds = %93
  %105 = load i32, i32* %7, align 4
  br label %115

106:                                              ; preds = %93
  %107 = load i32, i32* %5, align 4
  %108 = sext i32 %107 to i64
  %109 = getelementptr inbounds [27 x [27 x i32]], [27 x [27 x i32]]* %3, i64 0, i64 %108
  %110 = load i32, i32* %6, align 4
  %111 = sext i32 %110 to i64
  %112 = getelementptr inbounds [27 x i32], [27 x i32]* %109, i64 0, i64 %111
  %113 = load i32, i32* %112, align 4
  %114 = add nsw i32 %113, 1
  br label %115

115:                                              ; preds = %106, %104
  %116 = phi i32 [ %105, %104 ], [ %114, %106 ]
  store i32 %116, i32* %7, align 4
  br label %117

117:                                              ; preds = %115, %83
  br label %118

118:                                              ; preds = %117
  %119 = load i32, i32* %6, align 4
  %120 = add nsw i32 %119, 1
  store i32 %120, i32* %6, align 4
  br label %79

121:                                              ; preds = %79
  %122 = load i32, i32* %7, align 4
  %123 = load i32, i32* %4, align 4
  %124 = sext i32 %123 to i64
  %125 = getelementptr inbounds [27 x [27 x i32]], [27 x [27 x i32]]* %3, i64 0, i64 %124
  %126 = load i32, i32* %5, align 4
  %127 = sext i32 %126 to i64
  %128 = getelementptr inbounds [27 x i32], [27 x i32]* %125, i64 0, i64 %127
  store i32 %122, i32* %128, align 4
  br label %129

129:                                              ; preds = %121, %36
  br label %130

130:                                              ; preds = %129
  %131 = load i32, i32* %5, align 4
  %132 = add nsw i32 %131, -1
  store i32 %132, i32* %5, align 4
  br label %32

133:                                              ; preds = %32
  br label %134

134:                                              ; preds = %133
  %135 = load i32, i32* %4, align 4
  %136 = add nsw i32 %135, -1
  store i32 %136, i32* %4, align 4
  br label %27

137:                                              ; preds = %27
  %138 = getelementptr inbounds [27 x [27 x i32]], [27 x [27 x i32]]* %3, i64 0, i64 0
  %139 = getelementptr inbounds [27 x i32], [27 x i32]* %138, i64 0, i64 1
  %140 = load i32, i32* %139, align 4
  %141 = call i32 (i8*, ...) @printf(i8* getelementptr inbounds ([4 x i8], [4 x i8]* @.str.1, i64 0, i64 0), i32 %140)
  ret void
}

; Function Attrs: argmemonly nounwind willreturn
declare void @llvm.memset.p0i8.i64(i8* nocapture writeonly, i8, i64, i1 immarg) #1

declare dso_local i32 @__isoc99_scanf(i8*, ...) #2

declare dso_local i32 @printf(i8*, ...) #2


!llvm.module.flags = !{!0}
!llvm.ident = !{!1}

!0 = !{i32 1, !"wchar_size", i32 4}
!1 = !{!"clang version 10.0.0-4ubuntu1 "}
